target datalayout = "e-m:e-p270:32:32-p271:32:32-p272:64:64-i64:64-i128:128-f80:128-n8:16:32:64-S128"
target triple = "x86_64-pc-linux-gnu"

@hf_gtpv2_trace_id = internal global i32 0, align 4
@.str.1819 = private unnamed_addr constant [15 x i8] c"%s,Trace ID %u\00", align 1

; Function Attrs: null_pointer_is_valid sspstrong uwtable
define internal void @dissect_gtpv2_trace_reference(ptr noundef %0, ptr noundef %1, ptr noundef %2, ptr noundef %3, i16 noundef zeroext %4, i8 noundef zeroext %5, i8 noundef zeroext %6, ptr noundef %7) #1 {
  %9 = alloca ptr, align 8
  %10 = alloca ptr, align 8
  %11 = alloca ptr, align 8
  %12 = alloca ptr, align 8
  %13 = alloca i16, align 2
  %14 = alloca i8, align 1
  %15 = alloca i8, align 1
  %16 = alloca ptr, align 8
  %17 = alloca i32, align 4
  %18 = alloca i32, align 4
  %19 = alloca ptr, align 8
  store ptr %0, ptr %9, align 8
  store ptr %1, ptr %10, align 8
  store ptr %2, ptr %11, align 8
  store ptr %3, ptr %12, align 8
  store i16 %4, ptr %13, align 2
  store i8 %5, ptr %14, align 1
  store i8 %6, ptr %15, align 1
  store ptr %7, ptr %16, align 8
  call void @llvm.lifetime.start.p0(i64 4, ptr %17) #11
  store i32 0, ptr %17, align 4
  call void @llvm.lifetime.start.p0(i64 4, ptr %18) #11
  call void @llvm.lifetime.start.p0(i64 8, ptr %19) #11
  %20 = load ptr, ptr %9, align 8
  %21 = load ptr, ptr %10, align 8
  %22 = load ptr, ptr %11, align 8
  %23 = call ptr @dissect_e212_mcc_mnc_wmem_packet_str(ptr noundef %20, ptr noundef %21, ptr noundef %22, i32 noundef 0, i32 noundef 0, i1 noundef zeroext true)
  store ptr %23, ptr %19, align 8
  %24 = load i32, ptr %17, align 4
  %25 = add i32 %24, 3
  store i32 %25, ptr %17, align 4
  %26 = load ptr, ptr %9, align 8
  %27 = load i32, ptr %17, align 4
  %28 = call zeroext i16 @tvb_get_ntohs(ptr noundef %26, i32 noundef %27)
  %29 = zext i16 %28 to i32
  store i32 %29, ptr %18, align 4
  %30 = load ptr, ptr %11, align 8
  %31 = load i32, ptr @hf_gtpv2_trace_id, align 4
  %32 = load ptr, ptr %9, align 8
  %33 = load i32, ptr %17, align 4
  %34 = call ptr @proto_tree_add_item(ptr noundef %30, i32 noundef %31, ptr noundef %32, i32 noundef %33, i32 noundef 3, i32 noundef 0)
  %35 = load ptr, ptr %12, align 8
  %36 = load ptr, ptr %19, align 8
  %37 = load i32, ptr %18, align 4
  call void (ptr, ptr, ...) @proto_item_append_text(ptr noundef %35, ptr noundef @.str.1819, ptr noundef %36, i32 noundef %37)
  call void @llvm.lifetime.end.p0(i64 8, ptr %19) #11
  call void @llvm.lifetime.end.p0(i64 4, ptr %18) #11
  call void @llvm.lifetime.end.p0(i64 4, ptr %17) #11
  ret void
}