; Function Attrs: null_pointer_is_valid sspstrong uwtable
define internal void @dissect_gtpv2_trace_reference(ptr noundef %0, ptr noundef %1, ptr noundef %2, ptr noundef %3, i16 zeroext %4, i8 zeroext %5, i8 zeroext %6, ptr readnone captures(none) %7) #1 {
  %9 = tail call ptr @dissect_e212_mcc_mnc_wmem_packet_str(ptr noundef %0, ptr noundef %1, ptr noundef %2, i32 noundef 0, i32 noundef 0, i1 noundef zeroext true)
  %10 = tail call zeroext i16 @tvb_get_ntohs(ptr noundef %0, i32 noundef 3)
  %11 = zext i16 %10 to i32
  %12 = load i32, ptr @hf_gtpv2_trace_id, align 4
  %13 = tail call ptr @proto_tree_add_item(ptr noundef %2, i32 noundef %12, ptr noundef %0, i32 noundef 3, i32 noundef 3, i32 noundef 0)
  tail call void (ptr, ptr, ...) @proto_item_append_text(ptr noundef %3, ptr noundef nonnull @.str.1819, ptr noundef %9, i32 noundef %11)
  ret void
}